target datalayout = "e-m:e-p270:32:32-p271:32:32-p272:64:64-i64:64-i128:128-f80:128-n8:16:32:64-S128"
target triple = "x86_64-unknown-linux-gnu"

%"class.std::__cxx11::basic_string" = type { %"struct.std::__cxx11::basic_string<char>::_Alloc_hider", i64, %union.anon }
%"struct.std::__cxx11::basic_string<char>::_Alloc_hider" = type { ptr }
%union.anon = type { i64, [8 x i8] }
%"class.folly::SharedMutexImpl" = type { %"struct.std::atomic.16" }
%"struct.std::atomic.16" = type { %"struct.std::__atomic_base.17" }
%"struct.std::__atomic_base.17" = type { i32 }
%"class.facebook::velox::memory::MemoryPool" = type { ptr, %"class.std::enable_shared_from_this", %"class.std::__cxx11::basic_string", i32, i16, %"class.std::shared_ptr", i64, i8, i8, i8, i8, i8, %"struct.std::atomic", %"class.std::__exception_ptr::exception_ptr", %"class.folly::SharedMutexImpl", %"class.std::unordered_map" }
%"class.std::enable_shared_from_this" = type { %"class.std::weak_ptr" }
%"class.std::weak_ptr" = type { %"class.std::__weak_ptr" }
%"class.std::__weak_ptr" = type { ptr, %"class.std::__weak_count" }
%"class.std::__weak_count" = type { ptr }
%"class.std::shared_ptr" = type { %"class.std::__shared_ptr" }
%"class.std::__shared_ptr" = type { ptr, %"class.std::__shared_count" }
%"class.std::__shared_count" = type { ptr }
%"struct.std::atomic" = type { %"struct.std::__atomic_base" }
%"struct.std::__atomic_base" = type { i8 }
%"class.std::__exception_ptr::exception_ptr" = type { ptr }
%"class.std::unordered_map" = type { %"class.std::_Hashtable" }
%"class.std::_Hashtable" = type { ptr, i64, %"struct.std::__detail::_Hash_node_base", i64, %"struct.std::__detail::_Prime_rehash_policy", ptr }
%"struct.std::__detail::_Hash_node_base" = type { ptr }
%"struct.std::__detail::_Prime_rehash_policy" = type { float, i64 }
%"class.std::_Function_base" = type { %"union.std::_Any_data", ptr }
%"union.std::_Any_data" = type { %"union.std::_Nocopy_types" }
%"union.std::_Nocopy_types" = type { { i64, i64 } }
%"class.std::unique_ptr" = type { %"struct.std::__uniq_ptr_data" }
%"struct.std::__uniq_ptr_data" = type { %"class.std::__uniq_ptr_impl" }
%"class.std::__uniq_ptr_impl" = type { %"class.std::tuple.27" }
%"class.std::tuple.27" = type { %"struct.std::_Tuple_impl.28" }
%"struct.std::_Tuple_impl.28" = type { %"struct.std::_Head_base.31" }
%"struct.std::_Head_base.31" = type { ptr }
%"class.facebook::velox::memory::MemoryPoolImpl" = type { %"class.facebook::velox::memory::MemoryPool", ptr, ptr, %"class.std::function.34", %"class.std::__cxx11::basic_string", %"class.std::mutex", %"class.std::unique_ptr", i64, i64, i64, i64, i64, i64, %"struct.std::atomic.37", %"struct.std::atomic.37", %"struct.std::atomic.37", %"struct.std::atomic.37", %"struct.std::atomic.37", %"class.std::mutex", %"class.std::unordered_map.39" }
%"class.std::function.34" = type { %"class.std::_Function_base", ptr }
%"struct.std::atomic.37" = type { %"struct.std::__atomic_base.38" }
%"struct.std::__atomic_base.38" = type { i64 }
%"class.std::mutex" = type { %"class.std::__mutex_base" }
%"class.std::__mutex_base" = type { %union.pthread_mutex_t }
%union.pthread_mutex_t = type { %struct.__pthread_mutex_s }
%struct.__pthread_mutex_s = type { i32, i32, i32, i32, i32, i16, i16, %struct.__pthread_internal_list }
%struct.__pthread_internal_list = type { ptr, ptr }
%"class.std::unordered_map.39" = type { %"class.std::_Hashtable.40" }
%"class.std::_Hashtable.40" = type { ptr, i64, %"struct.std::__detail::_Hash_node_base", i64, %"struct.std::__detail::_Prime_rehash_policy", ptr }
%"class.std::lock_guard" = type { ptr }

; Function Attrs: mustprogress nounwind uwtable
define internal noundef i32 @_ZL18__gthread_active_pv() #3 {
entry:
  ret i32 1
}

; Function Attrs: mustprogress nounwind uwtable
define internal noundef i32 @_ZL22__gthread_mutex_unlockP15pthread_mutex_t(ptr noundef %__mutex) #3 {
entry:
  %retval = alloca i32, align 4
  %__mutex.addr = alloca ptr, align 8
  store ptr %__mutex, ptr %__mutex.addr, align 8
  %call = call noundef i32 @_ZL18__gthread_active_pv()
  %tobool = icmp ne i32 %call, 0
  br i1 %tobool, label %if.then, label %if.else

if.then:                                          ; preds = %entry
  %0 = load ptr, ptr %__mutex.addr, align 8
  %call1 = call i32 @pthread_mutex_unlock(ptr noundef %0) #11
  store i32 %call1, ptr %retval, align 4
  br label %return

if.else:                                          ; preds = %entry
  store i32 0, ptr %retval, align 4
  br label %return

return:                                           ; preds = %if.else, %if.then
  %1 = load i32, ptr %retval, align 4
  ret i32 %1
}

; Function Attrs: mustprogress uwtable
define internal noundef i32 @_ZL20__gthread_mutex_lockP15pthread_mutex_t(ptr noundef %__mutex) #0 {
entry:
  %retval = alloca i32, align 4
  %__mutex.addr = alloca ptr, align 8
  store ptr %__mutex, ptr %__mutex.addr, align 8
  %call = call noundef i32 @_ZL18__gthread_active_pv()
  %tobool = icmp ne i32 %call, 0
  br i1 %tobool, label %if.then, label %if.else

if.then:                                          ; preds = %entry
  %0 = load ptr, ptr %__mutex.addr, align 8
  %call1 = call i32 @pthread_mutex_lock(ptr noundef %0) #11
  store i32 %call1, ptr %retval, align 4
  br label %return

if.else:                                          ; preds = %entry
  store i32 0, ptr %retval, align 4
  br label %return

return:                                           ; preds = %if.else, %if.then
  %1 = load i32, ptr %retval, align 4
  ret i32 %1
}

; Function Attrs: mustprogress nounwind uwtable
define linkonce_odr noundef ptr @_ZNKSt12__shared_ptrIN8facebook5velox6memory10MemoryPoolELN9__gnu_cxx12_Lock_policyE2EE3getEv(ptr noundef nonnull align 8 dereferenceable(16) %this) #3 comdat align 2 {
entry:
  %this.addr = alloca ptr, align 8
  store ptr %this, ptr %this.addr, align 8
  %this1 = load ptr, ptr %this.addr, align 8
  %_M_ptr = getelementptr inbounds %"class.std::__shared_ptr", ptr %this1, i32 0, i32 0
  %0 = load ptr, ptr %_M_ptr, align 8
  ret ptr %0
}

; Function Attrs: mustprogress uwtable
define linkonce_odr void @_ZNSt5mutex6unlockEv(ptr noundef nonnull align 8 dereferenceable(40) %this) #0 comdat align 2 {
entry:
  %this.addr = alloca ptr, align 8
  store ptr %this, ptr %this.addr, align 8
  %this1 = load ptr, ptr %this.addr, align 8
  %_M_mutex = getelementptr inbounds %"class.std::__mutex_base", ptr %this1, i32 0, i32 0
  %call = call noundef i32 @_ZL22__gthread_mutex_unlockP15pthread_mutex_t(ptr noundef %_M_mutex)
  ret void
}

; Function Attrs: mustprogress uwtable
define linkonce_odr void @_ZNSt5mutex4lockEv(ptr noundef nonnull align 8 dereferenceable(40) %this) #0 comdat align 2 {
entry:
  %this.addr = alloca ptr, align 8
  %__e = alloca i32, align 4
  store ptr %this, ptr %this.addr, align 8
  %this1 = load ptr, ptr %this.addr, align 8
  %_M_mutex = getelementptr inbounds %"class.std::__mutex_base", ptr %this1, i32 0, i32 0
  %call = call noundef i32 @_ZL20__gthread_mutex_lockP15pthread_mutex_t(ptr noundef %_M_mutex)
  store i32 %call, ptr %__e, align 4
  %0 = load i32, ptr %__e, align 4
  %tobool = icmp ne i32 %0, 0
  br i1 %tobool, label %if.then, label %if.end

if.then:                                          ; preds = %entry
  %1 = load i32, ptr %__e, align 4
  call void @_ZSt20__throw_system_errori(i32 noundef %1) #16
  unreachable

if.end:                                           ; preds = %entry
  ret void
}

; Function Attrs: mustprogress nounwind uwtable
define linkonce_odr noundef ptr @_ZNKSt19__shared_ptr_accessIN8facebook5velox6memory10MemoryPoolELN9__gnu_cxx12_Lock_policyE2ELb0ELb0EE6_M_getEv(ptr noundef nonnull align 1 dereferenceable(1) %this) #3 comdat align 2 {
entry:
  %this.addr = alloca ptr, align 8
  store ptr %this, ptr %this.addr, align 8
  %this1 = load ptr, ptr %this.addr, align 8
  %call = call noundef ptr @_ZNKSt12__shared_ptrIN8facebook5velox6memory10MemoryPoolELN9__gnu_cxx12_Lock_policyE2EE3getEv(ptr noundef nonnull align 8 dereferenceable(16) %this1) #11
  ret ptr %call
}

; Function Attrs: mustprogress nounwind uwtable
define linkonce_odr noundef zeroext i1 @_ZNKSt12__shared_ptrIN8facebook5velox6memory10MemoryPoolELN9__gnu_cxx12_Lock_policyE2EEcvbEv(ptr noundef nonnull align 8 dereferenceable(16) %this) #3 comdat align 2 {
entry:
  %this.addr = alloca ptr, align 8
  store ptr %this, ptr %this.addr, align 8
  %this1 = load ptr, ptr %this.addr, align 8
  %_M_ptr = getelementptr inbounds %"class.std::__shared_ptr", ptr %this1, i32 0, i32 0
  %0 = load ptr, ptr %_M_ptr, align 8
  %cmp = icmp ne ptr %0, null
  ret i1 %cmp
}

; Function Attrs: mustprogress nounwind uwtable
define linkonce_odr void @_ZNSt10lock_guardISt5mutexED2Ev(ptr noundef nonnull align 8 dereferenceable(8) %this) unnamed_addr #3 comdat align 2 personality ptr @__gxx_personality_v0 {
entry:
  %this.addr = alloca ptr, align 8
  store ptr %this, ptr %this.addr, align 8
  %this1 = load ptr, ptr %this.addr, align 8
  %_M_device = getelementptr inbounds %"class.std::lock_guard", ptr %this1, i32 0, i32 0
  %0 = load ptr, ptr %_M_device, align 8
  invoke void @_ZNSt5mutex6unlockEv(ptr noundef nonnull align 8 dereferenceable(40) %0)
          to label %invoke.cont unwind label %terminate.lpad

invoke.cont:                                      ; preds = %entry
  ret void

terminate.lpad:                                   ; preds = %entry
  %1 = landingpad { ptr, i32 }
          catch ptr null
  %2 = extractvalue { ptr, i32 } %1, 0
  call void @__clang_call_terminate(ptr %2) #15
  unreachable
}

; Function Attrs: mustprogress uwtable
define linkonce_odr void @_ZNSt10lock_guardISt5mutexEC2ERS0_(ptr noundef nonnull align 8 dereferenceable(8) %this, ptr noundef nonnull align 8 dereferenceable(40) %__m) unnamed_addr #0 comdat align 2 {
entry:
  %this.addr = alloca ptr, align 8
  %__m.addr = alloca ptr, align 8
  store ptr %this, ptr %this.addr, align 8
  store ptr %__m, ptr %__m.addr, align 8
  %this1 = load ptr, ptr %this.addr, align 8
  %_M_device = getelementptr inbounds %"class.std::lock_guard", ptr %this1, i32 0, i32 0
  %0 = load ptr, ptr %__m.addr, align 8
  store ptr %0, ptr %_M_device, align 8
  %_M_device2 = getelementptr inbounds %"class.std::lock_guard", ptr %this1, i32 0, i32 0
  %1 = load ptr, ptr %_M_device2, align 8
  call void @_ZNSt5mutex4lockEv(ptr noundef nonnull align 8 dereferenceable(40) %1)
  ret void
}

; Function Attrs: mustprogress nounwind uwtable
define linkonce_odr noundef ptr @_ZNKSt19__shared_ptr_accessIN8facebook5velox6memory10MemoryPoolELN9__gnu_cxx12_Lock_policyE2ELb0ELb0EEptEv(ptr noundef nonnull align 1 dereferenceable(1) %this) #3 comdat align 2 {
entry:
  %this.addr = alloca ptr, align 8
  store ptr %this, ptr %this.addr, align 8
  %this1 = load ptr, ptr %this.addr, align 8
  %call = call noundef ptr @_ZNKSt19__shared_ptr_accessIN8facebook5velox6memory10MemoryPoolELN9__gnu_cxx12_Lock_policyE2ELb0ELb0EE6_M_getEv(ptr noundef nonnull align 1 dereferenceable(1) %this1) #11
  ret ptr %call
}

; Function Attrs: mustprogress nounwind uwtable
define linkonce_odr noundef zeroext i1 @_ZStneIN8facebook5velox6memory10MemoryPoolEEbRKSt10shared_ptrIT_EDn(ptr noundef nonnull align 8 dereferenceable(16) %__a, ptr %0) #3 comdat {
entry:
  %__a.addr = alloca ptr, align 8
  %.addr = alloca ptr, align 8
  store ptr %__a, ptr %__a.addr, align 8
  store ptr %0, ptr %.addr, align 8
  %1 = load ptr, ptr %__a.addr, align 8
  %call = call noundef zeroext i1 @_ZNKSt12__shared_ptrIN8facebook5velox6memory10MemoryPoolELN9__gnu_cxx12_Lock_policyE2EEcvbEv(ptr noundef nonnull align 8 dereferenceable(16) %1) #11
  ret i1 %call
}

; Function Attrs: mustprogress nounwind uwtable
define noundef i64 @_ZN8facebook5velox6memory14MemoryPoolImpl4growEm(ptr noundef nonnull align 8 dereferenceable(480) %this, i64 noundef %bytes) unnamed_addr #3 align 2 personality ptr @__gxx_personality_v0 {
entry:
  %retval = alloca i64, align 8
  %this.addr = alloca ptr, align 8
  %bytes.addr = alloca i64, align 8
  %l = alloca %"class.std::lock_guard", align 8
  store ptr %this, ptr %this.addr, align 8
  store i64 %bytes, ptr %bytes.addr, align 8
  %this1 = load ptr, ptr %this.addr, align 8
  %parent_ = getelementptr inbounds %"class.facebook::velox::memory::MemoryPool", ptr %this1, i32 0, i32 5
  %call = call noundef zeroext i1 @_ZStneIN8facebook5velox6memory10MemoryPoolEEbRKSt10shared_ptrIT_EDn(ptr noundef nonnull align 8 dereferenceable(16) %parent_, ptr null) #11
  br i1 %call, label %if.then, label %if.end

if.then:                                          ; preds = %entry
  %parent_2 = getelementptr inbounds %"class.facebook::velox::memory::MemoryPool", ptr %this1, i32 0, i32 5
  %call3 = call noundef ptr @_ZNKSt19__shared_ptr_accessIN8facebook5velox6memory10MemoryPoolELN9__gnu_cxx12_Lock_policyE2ELb0ELb0EEptEv(ptr noundef nonnull align 1 dereferenceable(1) %parent_2) #11
  %0 = load i64, ptr %bytes.addr, align 8
  %vtable = load ptr, ptr %call3, align 8
  %vfn = getelementptr inbounds ptr, ptr %vtable, i64 36
  %1 = load ptr, ptr %vfn, align 8
  %call4 = call noundef i64 %1(ptr noundef nonnull align 8 dereferenceable(168) %call3, i64 noundef %0) #11
  store i64 %call4, ptr %retval, align 8
  br label %return

if.end:                                           ; preds = %entry
  %mutex_ = getelementptr inbounds %"class.facebook::velox::memory::MemoryPoolImpl", ptr %this1, i32 0, i32 5
  invoke void @_ZNSt10lock_guardISt5mutexEC2ERS0_(ptr noundef nonnull align 8 dereferenceable(8) %l, ptr noundef nonnull align 8 dereferenceable(40) %mutex_)
          to label %invoke.cont unwind label %terminate.lpad

invoke.cont:                                      ; preds = %if.end
  %capacity_ = getelementptr inbounds %"class.facebook::velox::memory::MemoryPoolImpl", ptr %this1, i32 0, i32 7
  %2 = load i64, ptr %capacity_, align 8
  %cmp = icmp ne i64 %2, 9223372036854775807
  %lnot = xor i1 %cmp, true
  br i1 %lnot, label %if.then5, label %if.end6

if.then5:                                         ; preds = %invoke.cont
  call void @llvm.trap()
  br label %if.end6

if.end6:                                          ; preds = %if.then5, %invoke.cont
  %capacity_7 = getelementptr inbounds %"class.facebook::velox::memory::MemoryPoolImpl", ptr %this1, i32 0, i32 7
  %3 = load i64, ptr %capacity_7, align 8
  %4 = load i64, ptr %bytes.addr, align 8
  %add = add i64 %3, %4
  %maxCapacity_ = getelementptr inbounds %"class.facebook::velox::memory::MemoryPool", ptr %this1, i32 0, i32 6
  %5 = load i64, ptr %maxCapacity_, align 8
  %cmp8 = icmp ule i64 %add, %5
  %lnot9 = xor i1 %cmp8, true
  br i1 %lnot9, label %if.then10, label %if.end11

if.then10:                                        ; preds = %if.end6
  call void @llvm.trap()
  br label %if.end11

if.end11:                                         ; preds = %if.then10, %if.end6
  %6 = load i64, ptr %bytes.addr, align 8
  %capacity_12 = getelementptr inbounds %"class.facebook::velox::memory::MemoryPoolImpl", ptr %this1, i32 0, i32 7
  %7 = load i64, ptr %capacity_12, align 8
  %add13 = add i64 %7, %6
  store i64 %add13, ptr %capacity_12, align 8
  %capacity_14 = getelementptr inbounds %"class.facebook::velox::memory::MemoryPoolImpl", ptr %this1, i32 0, i32 7
  %8 = load i64, ptr %capacity_14, align 8
  %9 = load i64, ptr %bytes.addr, align 8
  %cmp15 = icmp uge i64 %8, %9
  %lnot16 = xor i1 %cmp15, true
  br i1 %lnot16, label %if.then17, label %if.end18

if.then17:                                        ; preds = %if.end11
  call void @llvm.trap()
  br label %if.end18

if.end18:                                         ; preds = %if.then17, %if.end11
  %capacity_19 = getelementptr inbounds %"class.facebook::velox::memory::MemoryPoolImpl", ptr %this1, i32 0, i32 7
  %10 = load i64, ptr %capacity_19, align 8
  store i64 %10, ptr %retval, align 8
  call void @_ZNSt10lock_guardISt5mutexED2Ev(ptr noundef nonnull align 8 dereferenceable(8) %l) #11
  br label %return

return:                                           ; preds = %if.end18, %if.then
  %11 = load i64, ptr %retval, align 8
  ret i64 %11

terminate.lpad:                                   ; preds = %if.end
  %12 = landingpad { ptr, i32 }
          catch ptr null
  %13 = extractvalue { ptr, i32 } %12, 0
  call void @__clang_call_terminate(ptr %13) #15
  unreachable
}