; Function Attrs: mustprogress nounwind uwtable
define noundef i64 @_ZN8facebook5velox6memory14MemoryPoolImpl4growEm(ptr noundef nonnull align 8 dereferenceable(480) %this, i64 noundef %bytes) unnamed_addr #5 align 2 personality ptr @__gxx_personality_v0 {
entry:
  %parent_ = getelementptr inbounds i8, ptr %this, i64 64
  %0 = load ptr, ptr %parent_, align 8
  %cmp.i.i.not = icmp eq ptr %0, null
  br i1 %cmp.i.i.not, label %if.end, label %if.then

if.then:                                          ; preds = %entry
  %vtable = load ptr, ptr %0, align 8
  %vfn = getelementptr inbounds i8, ptr %vtable, i64 288
  %1 = load ptr, ptr %vfn, align 8
  %call4 = tail call noundef i64 %1(ptr noundef nonnull align 8 dereferenceable(168) %0, i64 noundef %bytes) #26
  br label %return

if.end:                                           ; preds = %entry
  %mutex_ = getelementptr inbounds i8, ptr %this, i64 248
  %call1.i.i.i = tail call noundef i32 @pthread_mutex_lock(ptr noundef nonnull %mutex_) #26
  %tobool.not.i.i = icmp eq i32 %call1.i.i.i, 0
  br i1 %tobool.not.i.i, label %invoke.cont, label %if.then.i.i

if.then.i.i:                                      ; preds = %if.end
  invoke void @_ZSt20__throw_system_errori(i32 noundef %call1.i.i.i) #29
          to label %.noexc unwind label %terminate.lpad

.noexc:                                           ; preds = %if.then.i.i
  unreachable

invoke.cont:                                      ; preds = %if.end
  %capacity_ = getelementptr inbounds i8, ptr %this, i64 296
  %2 = load i64, ptr %capacity_, align 8
  %cmp.not = icmp eq i64 %2, 9223372036854775807
  br i1 %cmp.not, label %if.then5, label %if.end6

if.then5:                                         ; preds = %invoke.cont
  tail call void @llvm.trap()
  unreachable

if.end6:                                          ; preds = %invoke.cont
  %add = add i64 %2, %bytes
  %maxCapacity_ = getelementptr inbounds i8, ptr %this, i64 80
  %3 = load i64, ptr %maxCapacity_, align 8
  %cmp8.not = icmp ugt i64 %add, %3
  br i1 %cmp8.not, label %if.then10, label %if.end11

if.then10:                                        ; preds = %if.end6
  tail call void @llvm.trap()
  unreachable

if.end11:                                         ; preds = %if.end6
  store i64 %add, ptr %capacity_, align 8
  %cmp15.not = icmp ult i64 %add, %bytes
  br i1 %cmp15.not, label %if.then17, label %if.end18

if.then17:                                        ; preds = %if.end11
  tail call void @llvm.trap()
  unreachable

if.end18:                                         ; preds = %if.end11
  %call1.i.i.i4 = tail call noundef i32 @pthread_mutex_unlock(ptr noundef nonnull %mutex_) #26
  br label %return

return:                                           ; preds = %if.end18, %if.then
  %retval.0 = phi i64 [ %call4, %if.then ], [ %add, %if.end18 ]
  ret i64 %retval.0

terminate.lpad:                                   ; preds = %if.then.i.i
  %4 = landingpad { ptr, i32 }
          catch ptr null
  %5 = extractvalue { ptr, i32 } %4, 0
  tail call void @__clang_call_terminate(ptr %5) #28
  unreachable
}